target datalayout = "e-m:e-p270:32:32-p271:32:32-p272:64:64-i64:64-i128:128-f80:128-n8:16:32:64-S128"
target triple = "x86_64-pc-linux-gnu"

%class.G1RemSet = type { ptr, %class.G1RemSetSummary, ptr, ptr, ptr }
%class.G1RemSetSummary = type { i64, ptr }
%class.G1RemSetScanState = type { i64, ptr, i32, i8, ptr, i64, i8, ptr, ptr, ptr }

; Function Attrs: mustprogress nounwind uwtable
define linkonce_odr hidden void @_ZN17G1RemSetScanState12set_scan_topEjPP12HeapWordImpl(ptr noundef nonnull align 8 dereferenceable(72) %0, i32 noundef %1, ptr noundef %2) #1 comdat align 2 {
  %4 = alloca ptr, align 8
  %5 = alloca i32, align 4
  %6 = alloca ptr, align 8
  store ptr %0, ptr %4, align 8
  store i32 %1, ptr %5, align 4
  store ptr %2, ptr %6, align 8
  %7 = load ptr, ptr %4, align 8
  %8 = load ptr, ptr %6, align 8
  %9 = getelementptr inbounds %class.G1RemSetScanState, ptr %7, i32 0, i32 9
  %10 = load ptr, ptr %9, align 8
  %11 = load i32, ptr %5, align 4
  %12 = zext i32 %11 to i64
  %13 = getelementptr inbounds ptr, ptr %10, i64 %12
  store ptr %8, ptr %13, align 8
  ret void
}

; Function Attrs: mustprogress nounwind uwtable
define linkonce_odr hidden void @_ZN17G1RemSetScanState14clear_scan_topEj(ptr noundef nonnull align 8 dereferenceable(72) %0, i32 noundef %1) #1 comdat align 2 {
  %3 = alloca ptr, align 8
  %4 = alloca i32, align 4
  store ptr %0, ptr %3, align 8
  store i32 %1, ptr %4, align 4
  %5 = load ptr, ptr %3, align 8
  %6 = load i32, ptr %4, align 4
  call void @_ZN17G1RemSetScanState12set_scan_topEjPP12HeapWordImpl(ptr noundef nonnull align 8 dereferenceable(72) %5, i32 noundef %6, ptr noundef null)
  ret void
}

; Function Attrs: mustprogress nounwind uwtable
define hidden void @_ZN8G1RemSet24exclude_region_from_scanEj(ptr noundef nonnull align 8 dereferenceable(48) %0, i32 noundef %1) #1 align 2 {
  %3 = alloca ptr, align 8
  %4 = alloca i32, align 4
  store ptr %0, ptr %3, align 8
  store i32 %1, ptr %4, align 4
  %5 = load ptr, ptr %3, align 8
  %6 = getelementptr inbounds %class.G1RemSet, ptr %5, i32 0, i32 0
  %7 = load ptr, ptr %6, align 8
  %8 = load i32, ptr %4, align 4
  call void @_ZN17G1RemSetScanState14clear_scan_topEj(ptr noundef nonnull align 8 dereferenceable(72) %7, i32 noundef %8)
  ret void
}