; Function Attrs: mustprogress nofree norecurse nosync nounwind willreturn memory(readwrite, inaccessiblemem: none) uwtable
define hidden void @_ZN8G1RemSet24exclude_region_from_scanEj(ptr nocapture noundef nonnull readonly align 8 dereferenceable(48) %0, i32 noundef %1) local_unnamed_addr #5 align 2 {
  %3 = load ptr, ptr %0, align 8
  %4 = getelementptr inbounds i8, ptr %3, i64 64
  %5 = load ptr, ptr %4, align 8
  %6 = zext i32 %1 to i64
  %7 = getelementptr inbounds ptr, ptr %5, i64 %6
  store ptr null, ptr %7, align 8
  ret void
}